(dp0
Vengine
p1
Vxelatex
p2
sVpackages
p3
c__builtin__
set
p4
((lp5
Vxcolor
p6
aVamsmath
p7
aVetoolbox
p8
aVframed
p9
aVamsthm
p10
aVarray
p11
aVupgreek
p12
aVmathtools
p13
aVnicefrac
p14
aVbabel
p15
aVpreamble/dtucolors
p16
aValgpseudocode
p17
aVblindtext
p18
aVsubfig
p19
aVmicrotype
p20
aVtikz
p21
aVcleveref
p22
aVlastpage
p23
aVmathdesign
p24
aVeso-pic
p25
aVgraphicx
p26
aVtodonotes
p27
aVhyperref
p28
aVfixme
p29
aVauthblk
p30
aValgorithm
p31
aVurl
p32
aVlistings
p33
aVsoul
p34
aVtotcount
p35
aVfontenc
p36
aVcsquotes
p37
atp38
Rp39
sVfiles_with_guttermarks
p40
g4
((lp41
V/Users/sovi/Google Drive/phd/thesis/chapters/papers/annotated/annotated.tex
p42
aV/Users/sovi/Google Drive/phd/thesis/chapters/papers/patternextraction/patternextraction.tex
p43
aV/Users/sovi/Google Drive/phd/thesis/chapters/papers/compressedrangesearching/compressedrangesearching.tex
p44
aV/Users/sovi/Google Drive/phd/thesis/./chapters/Introduction.tex
p45
aV/Users/sovi/Google Drive/phd/thesis/chapters/Conclusion.tex
p46
aV/Users/sovi/Google Drive/phd/thesis/./preamble/papers.tex
p47
aV/Users/sovi/Google Drive/phd/thesis/chapters/papers/motiondetection/motiondetection.tex
p48
aV/Users/sovi/Google Drive/phd/thesis/chapters/Introduction.tex
p49
aV/Users/sovi/Google Drive/phd/thesis/chapters/papers/fingerprints/fingerprints.tex
p50
aV/Users/sovi/Google Drive/phd/thesis/appendices/AnAppendix.tex
p51
aV/Users/sovi/Google Drive/phd/thesis/chapters/papers/coloredrangecounting/coloredrangecounting.tex
p52
aV/Users/sovi/Google Drive/phd/thesis/./Thesis.tex
p53
aVThesis.tex
p54
atp55
Rp56
sVsynctex
p57
I01
s.