(dp0
Vengine
p1
Vxelatex
p2
sVpackages
p3
c__builtin__
set
p4
((lp5
Vxcolor
p6
aVamsmath
p7
aVetoolbox
p8
aVframed
p9
aVamsthm
p10
aVarray
p11
aVifthen
p12
aVupgreek
p13
aVmathtools
p14
aVnewunicodechar
p15
aVnicefrac
p16
aVbabel
p17
aVpreamble/dtucolors
p18
aValgpseudocode
p19
aVblindtext
p20
aVmicrotype
p21
aVhyperref
p22
aVtikz
p23
aVcleveref
p24
aVlastpage
p25
aVmathdesign
p26
aVeso-pic
p27
aVgraphicx
p28
aVsubfig
p29
aVtodonotes
p30
aVfixme
p31
aVauthblk
p32
aValgorithm
p33
aVurl
p34
aVlistings
p35
aVsoul
p36
aVtotcount
p37
aVcsquotes
p38
atp39
Rp40
sVfiles_with_guttermarks
p41
g4
((lp42
V/Users/sovi/Google Drive/phd/thesis/chapters/papers/dynamiccompression/arrayexample3.tex
p43
aV/Users/sovi/Google Drive/phd/thesis/./prefrontmatter/titlepage.tex
p44
aV/Users/sovi/Google Drive/phd/thesis/./chapters/Introduction.tex
p45
aV/Users/sovi/Google Drive/phd/thesis/chapters/papers/motiondetection/motiondetection.tex
p46
aV/Users/sovi/Google Drive/phd/thesis/./chapters/papers/dynamiccompression/arrayexample1.tex
p47
aV/Users/sovi/Google Drive/phd/thesis/chapters/papers/coloredrangecounting/coloredrangecounting.tex
p48
aV/Users/sovi/Google Drive/phd/thesis/chapters/papers/dynamiccompression/arrayexample2.tex
p49
aV/Users/sovi/Google Drive/phd/thesis/chapters/papers/dynamiccompression/dynamiccompression.tex
p50
aV/Users/sovi/Google Drive/phd/thesis/./chapters/papers/coloredrangecounting/coloredrangecounting.tex
p51
aV/Users/sovi/Google Drive/phd/thesis/./chapters/papers/fingerprints/fingerprints.tex
p52
aV/Users/sovi/Google Drive/phd/thesis/chapters/papers/compressedrangesearching/compressedrangesearching.tex
p53
aV/Users/sovi/Google Drive/phd/thesis/chapters/papers/dynamiccompression/substringconcat.tex
p54
aV/Users/sovi/Google Drive/phd/thesis/chapters/papers/dynamiccompression/extensions.tex
p55
aV/Users/sovi/Google Drive/phd/thesis/./chapters/papers/dynamiccompression/arrayexample3.tex
p56
aV/Users/sovi/Google Drive/phd/thesis/chapters/papers/patternextraction/patternextraction.tex
p57
aV/Users/sovi/Google Drive/phd/thesis/./chapters/papers/patternextraction/patternextraction.tex
p58
aV/Users/sovi/Google Drive/phd/thesis/chapters/Contributions.tex
p59
aS'Thesis.tex'
p60
aV/Users/sovi/Google Drive/phd/thesis/chapters/papers/annotated/annotated.tex
p61
aV/Users/sovi/Google Drive/phd/thesis/./chapters/papers/annotated/annotated.tex
p62
aV/Users/sovi/Google Drive/phd/thesis/./chapters/papers/dynamiccompression/arrayexample2.tex
p63
aV/Users/sovi/Google Drive/phd/thesis/./preamble/papers.tex
p64
aV/Users/sovi/Google Drive/phd/thesis/./chapters/papers/motiondetection/motiondetection.tex
p65
aV/Users/sovi/Google Drive/phd/thesis/./chapters/Contributions.tex
p66
aV/Users/sovi/Google Drive/phd/thesis/chapters/Introduction.tex
p67
aV/Users/sovi/Google Drive/phd/thesis/./chapters/papers/compressedrangesearching/compressedrangesearching.tex
p68
aV/Users/sovi/Google Drive/phd/thesis/chapters/papers/fingerprints/fingerprints.tex
p69
aV/Users/sovi/Google Drive/phd/thesis/./chapters/papers/dynamiccompression/dynamiccompression.tex
p70
atp71
Rp72
sVsynctex
p73
I01
s.