(dp0
Vengine
p1
Vpdflatex
p2
sVpackages
p3
c__builtin__
set
p4
((lp5
Vhyperref
p6
aVfixme
p7
aVnicefrac
p8
aVamsmath
p9
aVgraphicx
p10
aVsoul
p11
aVframed
p12
aVmicrotype
p13
aVinputenc
p14
aVcite
p15
aVsubfig
p16
aVamssymb
p17
atp18
Rp19
sVfiles_with_guttermarks
p20
g4
((lp21
V/Users/sovi/Google Drive/phd/research/annotated/article.tex
p22
aS'article.tex'
p23
atp24
Rp25
sVsynctex
p26
I01
s.