(dp0
S'engine'
p1
Vpdflatex
p2
sS'packages'
p3
c__builtin__
set
p4
((lp5
S'subfig'
p6
atp7
Rp8
sS'files_with_guttermarks'
p9
g4
((lp10
S'/Users/sovi/Google Drive/phd/thesis/chapters/papers/motiondetection/motiondetection.tex'
p11
aS'/Users/sovi/Google Drive/phd/thesis/chapters/papers/motiondetection/./motiondetection.tex'
p12
aS'motiondetection.tex'
p13
atp14
Rp15
sS'synctex'
p16
I01
s.